; Function Attrs: nofree nosync nounwind memory(readwrite, inaccessiblemem: none) uwtable
define range(i32 -2147483647, -2147483648) i32 @Gia_NodeRef_rec(ptr noundef %0, ptr noundef %1, i32 noundef %2) local_unnamed_addr #19 {
  %.val = load i64, ptr %1, align 4
  %4 = and i64 %.val, 2684354559
  %narrow.i.not = icmp eq i64 %4, 2684354559
  br i1 %narrow.i.not, label %56, label %5

5:                                                ; preds = %3
  %.not20 = icmp eq i32 %2, 0
  br i1 %.not20, label %18, label %6

6:                                                ; preds = %5
  %7 = getelementptr inbounds nuw i8, ptr %0, i64 176
  %8 = load i32, ptr %7, align 8
  %9 = getelementptr inbounds nuw i8, ptr %0, i64 616
  %10 = load ptr, ptr %9, align 8
  %11 = getelementptr i8, ptr %0, i64 32
  %.val.i = load ptr, ptr %11, align 8
  %12 = ptrtoint ptr %1 to i64
  %13 = ptrtoint ptr %.val.i to i64
  %14 = sub i64 %12, %13
  %15 = sdiv exact i64 %14, 12
  %sext.i = shl i64 %15, 32
  %16 = ashr exact i64 %sext.i, 30
  %17 = getelementptr inbounds i8, ptr %10, i64 %16
  store i32 %8, ptr %17, align 4
  %.pre = load i64, ptr %1, align 4
  br label %18

18:                                               ; preds = %6, %5
  %19 = phi i64 [ %.pre, %6 ], [ %.val, %5 ]
  %20 = and i64 %19, 536870911
  %21 = sub nsw i64 0, %20
  %22 = getelementptr inbounds %struct.Gia_Obj_t_, ptr %1, i64 %21
  %23 = getelementptr i8, ptr %0, i64 32
  %.val21 = load ptr, ptr %23, align 8
  %24 = getelementptr i8, ptr %0, i64 144
  %.val22 = load ptr, ptr %24, align 8
  %25 = ptrtoint ptr %22 to i64
  %26 = ptrtoint ptr %.val21 to i64
  %27 = sub i64 %25, %26
  %28 = sdiv exact i64 %27, 12
  %sext.i25 = shl i64 %28, 32
  %29 = ashr exact i64 %sext.i25, 30
  %30 = getelementptr inbounds i8, ptr %.val22, i64 %29
  %31 = load i32, ptr %30, align 4
  %32 = add nsw i32 %31, 1
  store i32 %32, ptr %30, align 4
  %33 = icmp eq i32 %31, 0
  br i1 %33, label %34, label %36

34:                                               ; preds = %18
  %35 = tail call i32 @Gia_NodeRef_rec(ptr noundef nonnull %0, ptr noundef nonnull %22, i32 noundef %2)
  br label %36

36:                                               ; preds = %34, %18
  %.0 = phi i32 [ %35, %34 ], [ 0, %18 ]
  %37 = load i64, ptr %1, align 4
  %38 = lshr i64 %37, 32
  %39 = and i64 %38, 536870911
  %40 = sub nsw i64 0, %39
  %41 = getelementptr inbounds %struct.Gia_Obj_t_, ptr %1, i64 %40
  %.val23 = load ptr, ptr %23, align 8
  %.val24 = load ptr, ptr %24, align 8
  %42 = ptrtoint ptr %41 to i64
  %43 = ptrtoint ptr %.val23 to i64
  %44 = sub i64 %42, %43
  %45 = sdiv exact i64 %44, 12
  %sext.i26 = shl i64 %45, 32
  %46 = ashr exact i64 %sext.i26, 30
  %47 = getelementptr inbounds i8, ptr %.val24, i64 %46
  %48 = load i32, ptr %47, align 4
  %49 = add nsw i32 %48, 1
  store i32 %49, ptr %47, align 4
  %50 = icmp eq i32 %48, 0
  br i1 %50, label %51, label %54

51:                                               ; preds = %36
  %52 = tail call i32 @Gia_NodeRef_rec(ptr noundef nonnull %0, ptr noundef nonnull %41, i32 noundef %2)
  %53 = add nsw i32 %52, %.0
  br label %54

54:                                               ; preds = %51, %36
  %.1 = phi i32 [ %53, %51 ], [ %.0, %36 ]
  %55 = add nsw i32 %.1, 1
  br label %56

56:                                               ; preds = %3, %54
  %.019 = phi i32 [ %55, %54 ], [ 0, %3 ]
  ret i32 %.019
}